; Function Attrs: uwtable
define noundef i32 @_ZTv0_n120_N15colvarbias_meta13replica_shareEv(ptr noundef %0) unnamed_addr #3 align 2 {
  %2 = load ptr, ptr %0, align 8
  %3 = getelementptr inbounds i8, ptr %2, i64 -120
  %4 = load i64, ptr %3, align 8
  %5 = getelementptr inbounds i8, ptr %0, i64 %4
  %6 = getelementptr inbounds i8, ptr %5, i64 8
  %7 = load i32, ptr %6, align 8
  %8 = icmp eq i32 %7, 1
  br i1 %8, label %9, label %_ZN15colvarbias_meta13replica_shareEv.exit

9:                                                ; preds = %1
  %10 = tail call noundef ptr @_ZN12colvarmodule4mainEv()
  %11 = load ptr, ptr @_ZN12colvarmodule5proxyE, align 8
  %12 = load ptr, ptr %5, align 8
  %13 = getelementptr inbounds i8, ptr %12, i64 216
  %14 = load ptr, ptr %13, align 8
  %15 = tail call noundef i32 %14(ptr noundef nonnull align 8 dereferenceable(880) %5)
  %16 = getelementptr inbounds i8, ptr %11, i64 840
  %17 = getelementptr inbounds i8, ptr %5, i64 456
  %18 = load ptr, ptr %16, align 8
  %19 = getelementptr inbounds i8, ptr %18, i64 112
  %20 = load ptr, ptr %19, align 8
  %21 = tail call noundef i32 %20(ptr noundef nonnull align 8 dereferenceable(224) %16, ptr noundef nonnull align 8 dereferenceable(32) %17)
  %22 = or i32 %21, %15
  %23 = load ptr, ptr %5, align 8
  %24 = getelementptr inbounds i8, ptr %23, i64 224
  %25 = load ptr, ptr %24, align 8
  %26 = tail call noundef i32 %25(ptr noundef nonnull align 8 dereferenceable(880) %5)
  %27 = or i32 %22, %26
  br label %_ZN15colvarbias_meta13replica_shareEv.exit

_ZN15colvarbias_meta13replica_shareEv.exit:       ; preds = %1, %9
  %.0.i = phi i32 [ %27, %9 ], [ 0, %1 ]
  ret i32 %.0.i
}